target datalayout = "e-m:e-p270:32:32-p271:32:32-p272:64:64-i64:64-i128:128-f80:128-n8:16:32:64-S128"
target triple = "x86_64-pc-linux-gnu"

%struct.mbedtls_asn1_buf = type { i32, i64, ptr }
%struct.mbedtls_x509_crl = type { %struct.mbedtls_asn1_buf, %struct.mbedtls_asn1_buf, i32, %struct.mbedtls_asn1_buf, %struct.mbedtls_asn1_buf, %struct.mbedtls_asn1_named_data, %struct.mbedtls_x509_time, %struct.mbedtls_x509_time, %struct.mbedtls_x509_crl_entry, %struct.mbedtls_asn1_buf, %struct.mbedtls_asn1_buf, %struct.mbedtls_asn1_buf, i32, i32, ptr, ptr }
%struct.mbedtls_asn1_named_data = type { %struct.mbedtls_asn1_buf, %struct.mbedtls_asn1_buf, ptr, i8 }
%struct.mbedtls_x509_time = type { i32, i32, i32, i32, i32, i32 }
%struct.mbedtls_x509_crl_entry = type { %struct.mbedtls_asn1_buf, %struct.mbedtls_asn1_buf, %struct.mbedtls_x509_time, %struct.mbedtls_asn1_buf, ptr }

; Function Attrs: nounwind uwtable
define hidden void @mbedtls_x509_crl_free(ptr noundef %0) #0 {
  %2 = alloca ptr, align 8
  %3 = alloca ptr, align 8
  %4 = alloca ptr, align 8
  %5 = alloca ptr, align 8
  %6 = alloca ptr, align 8
  store ptr %0, ptr %2, align 8, !tbaa !3
  call void @llvm.lifetime.start.p0(i64 8, ptr %3) #9
  %7 = load ptr, ptr %2, align 8, !tbaa !3
  store ptr %7, ptr %3, align 8, !tbaa !3
  call void @llvm.lifetime.start.p0(i64 8, ptr %4) #9
  call void @llvm.lifetime.start.p0(i64 8, ptr %5) #9
  call void @llvm.lifetime.start.p0(i64 8, ptr %6) #9
  br label %8

8:                                                ; preds = %58, %1
  %9 = load ptr, ptr %3, align 8, !tbaa !3
  %10 = icmp ne ptr %9, null
  br i1 %10, label %11, label %59

11:                                               ; preds = %8
  %12 = load ptr, ptr %3, align 8, !tbaa !3
  %13 = getelementptr inbounds nuw %struct.mbedtls_x509_crl, ptr %12, i32 0, i32 14
  %14 = load ptr, ptr %13, align 8, !tbaa !35
  call void @free(ptr noundef %14) #9
  %15 = load ptr, ptr %3, align 8, !tbaa !3
  %16 = getelementptr inbounds nuw %struct.mbedtls_x509_crl, ptr %15, i32 0, i32 5
  %17 = getelementptr inbounds nuw %struct.mbedtls_asn1_named_data, ptr %16, i32 0, i32 2
  %18 = load ptr, ptr %17, align 8, !tbaa !36
  call void @mbedtls_asn1_free_named_data_list_shallow(ptr noundef %18)
  %19 = load ptr, ptr %3, align 8, !tbaa !3
  %20 = getelementptr inbounds nuw %struct.mbedtls_x509_crl, ptr %19, i32 0, i32 8
  %21 = getelementptr inbounds nuw %struct.mbedtls_x509_crl_entry, ptr %20, i32 0, i32 4
  %22 = load ptr, ptr %21, align 8, !tbaa !37
  store ptr %22, ptr %5, align 8, !tbaa !38
  br label %23

23:                                               ; preds = %26, %11
  %24 = load ptr, ptr %5, align 8, !tbaa !38
  %25 = icmp ne ptr %24, null
  br i1 %25, label %26, label %32

26:                                               ; preds = %23
  %27 = load ptr, ptr %5, align 8, !tbaa !38
  store ptr %27, ptr %6, align 8, !tbaa !38
  %28 = load ptr, ptr %5, align 8, !tbaa !38
  %29 = getelementptr inbounds nuw %struct.mbedtls_x509_crl_entry, ptr %28, i32 0, i32 4
  %30 = load ptr, ptr %29, align 8, !tbaa !39
  store ptr %30, ptr %5, align 8, !tbaa !38
  %31 = load ptr, ptr %6, align 8, !tbaa !38
  call void @mbedtls_zeroize_and_free(ptr noundef %31, i64 noundef 104)
  br label %23, !llvm.loop !40

32:                                               ; preds = %23
  %33 = load ptr, ptr %3, align 8, !tbaa !3
  %34 = getelementptr inbounds nuw %struct.mbedtls_x509_crl, ptr %33, i32 0, i32 0
  %35 = getelementptr inbounds nuw %struct.mbedtls_asn1_buf, ptr %34, i32 0, i32 2
  %36 = load ptr, ptr %35, align 8, !tbaa !25
  %37 = icmp ne ptr %36, null
  br i1 %37, label %38, label %47

38:                                               ; preds = %32
  %39 = load ptr, ptr %3, align 8, !tbaa !3
  %40 = getelementptr inbounds nuw %struct.mbedtls_x509_crl, ptr %39, i32 0, i32 0
  %41 = getelementptr inbounds nuw %struct.mbedtls_asn1_buf, ptr %40, i32 0, i32 2
  %42 = load ptr, ptr %41, align 8, !tbaa !25
  %43 = load ptr, ptr %3, align 8, !tbaa !3
  %44 = getelementptr inbounds nuw %struct.mbedtls_x509_crl, ptr %43, i32 0, i32 0
  %45 = getelementptr inbounds nuw %struct.mbedtls_asn1_buf, ptr %44, i32 0, i32 1
  %46 = load i64, ptr %45, align 8, !tbaa !26
  call void @mbedtls_zeroize_and_free(ptr noundef %42, i64 noundef %46)
  br label %47

47:                                               ; preds = %38, %32
  %48 = load ptr, ptr %3, align 8, !tbaa !3
  store ptr %48, ptr %4, align 8, !tbaa !3
  %49 = load ptr, ptr %3, align 8, !tbaa !3
  %50 = getelementptr inbounds nuw %struct.mbedtls_x509_crl, ptr %49, i32 0, i32 15
  %51 = load ptr, ptr %50, align 8, !tbaa !22
  store ptr %51, ptr %3, align 8, !tbaa !3
  %52 = load ptr, ptr %4, align 8, !tbaa !3
  call void @mbedtls_platform_zeroize(ptr noundef %52, i64 noundef 416)
  %53 = load ptr, ptr %4, align 8, !tbaa !3
  %54 = load ptr, ptr %2, align 8, !tbaa !3
  %55 = icmp ne ptr %53, %54
  br i1 %55, label %56, label %58

56:                                               ; preds = %47
  %57 = load ptr, ptr %4, align 8, !tbaa !3
  call void @free(ptr noundef %57) #9
  br label %58

58:                                               ; preds = %56, %47
  br label %8, !llvm.loop !41

59:                                               ; preds = %8
  call void @llvm.lifetime.end.p0(i64 8, ptr %6) #9
  call void @llvm.lifetime.end.p0(i64 8, ptr %5) #9
  call void @llvm.lifetime.end.p0(i64 8, ptr %4) #9
  call void @llvm.lifetime.end.p0(i64 8, ptr %3) #9
  ret void
}