; Function Attrs: nounwind uwtable
define hidden void @mbedtls_x509_crl_free(ptr noundef %0) local_unnamed_addr #0 {
  %.not25 = icmp eq ptr %0, null
  br i1 %.not25, label %._crit_edge29, label %.lr.ph28

.lr.ph28:                                         ; preds = %1, %19
  %.026 = phi ptr [ %17, %19 ], [ %0, %1 ]
  %2 = getelementptr inbounds nuw i8, ptr %.026, i64 400
  %3 = load ptr, ptr %2, align 8, !tbaa !34
  tail call void @free(ptr noundef %3) #10
  %4 = getelementptr inbounds nuw i8, ptr %.026, i64 152
  %5 = load ptr, ptr %4, align 8, !tbaa !35
  tail call void @mbedtls_asn1_free_named_data_list_shallow(ptr noundef %5) #10
  %6 = getelementptr inbounds nuw i8, ptr %.026, i64 312
  %7 = load ptr, ptr %6, align 8, !tbaa !36
  %.not2023 = icmp eq ptr %7, null
  br i1 %.not2023, label %._crit_edge, label %.lr.ph

.lr.ph:                                           ; preds = %.lr.ph28, %.lr.ph
  %.01824 = phi ptr [ %9, %.lr.ph ], [ %7, %.lr.ph28 ]
  %8 = getelementptr inbounds nuw i8, ptr %.01824, i64 96
  %9 = load ptr, ptr %8, align 8, !tbaa !37
  tail call void @mbedtls_zeroize_and_free(ptr noundef nonnull %.01824, i64 noundef 104) #10
  %.not20 = icmp eq ptr %9, null
  br i1 %.not20, label %._crit_edge, label %.lr.ph, !llvm.loop !38

._crit_edge:                                      ; preds = %.lr.ph, %.lr.ph28
  %10 = getelementptr inbounds nuw i8, ptr %.026, i64 16
  %11 = load ptr, ptr %10, align 8, !tbaa !22
  %.not21 = icmp eq ptr %11, null
  br i1 %.not21, label %15, label %12

12:                                               ; preds = %._crit_edge
  %13 = getelementptr inbounds nuw i8, ptr %.026, i64 8
  %14 = load i64, ptr %13, align 8, !tbaa !23
  tail call void @mbedtls_zeroize_and_free(ptr noundef nonnull %11, i64 noundef %14) #10
  br label %15

15:                                               ; preds = %12, %._crit_edge
  %16 = getelementptr inbounds nuw i8, ptr %.026, i64 408
  %17 = load ptr, ptr %16, align 8, !tbaa !18
  tail call void @mbedtls_platform_zeroize(ptr noundef nonnull %.026, i64 noundef 416) #10
  %.not22 = icmp eq ptr %.026, %0
  br i1 %.not22, label %19, label %18

18:                                               ; preds = %15
  tail call void @free(ptr noundef nonnull %.026) #10
  br label %19

19:                                               ; preds = %18, %15
  %.not = icmp eq ptr %17, null
  br i1 %.not, label %._crit_edge29, label %.lr.ph28, !llvm.loop !39

._crit_edge29:                                    ; preds = %19, %1
  ret void
}